; ModuleID = '2/287.c'
source_filename = "2/287.c"
target datalayout = "e-m:e-p270:32:32-p271:32:32-p272:64:64-i64:64-f80:128-n8:16:32:64-S128"
target triple = "x86_64-pc-linux-gnu"

%struct.anon = type { i32, [25 x i8] }

@.str = private unnamed_addr constant [3 x i8] c"%d\00", align 1
@.str.1 = private unnamed_addr constant [6 x i8] c"%d %s\00", align 1
@.str.2 = private unnamed_addr constant [4 x i8] c"%c\0A\00", align 1
@.str.3 = private unnamed_addr constant [4 x i8] c"%d\0A\00", align 1

; Function Attrs: noinline nounwind uwtable
define dso_local i32 @main() #0 {
  %1 = alloca i32, align 4
  %2 = alloca i32, align 4
  %3 = alloca [999 x %struct.anon], align 16
  %4 = alloca i32, align 4
  %5 = alloca i32, align 4
  %6 = alloca [26 x i32], align 16
  %7 = alloca i32, align 4
  %8 = alloca i32, align 4
  %9 = alloca i8, align 1
  %10 = alloca i32, align 4
  store i32 0, i32* %1, align 4
  %11 = call i32 (i8*, ...) @__isoc99_scanf(i8* getelementptr inbounds ([3 x i8], [3 x i8]* @.str, i64 0, i64 0), i32* %2)
  store i32 0, i32* %4, align 4
  br label %12

12:                                               ; preds = %28, %0
  %13 = load i32, i32* %4, align 4
  %14 = load i32, i32* %2, align 4
  %15 = sub nsw i32 %14, 1
  %16 = icmp sle i32 %13, %15
  br i1 %16, label %17, label %31

17:                                               ; preds = %12
  %18 = load i32, i32* %4, align 4
  %19 = sext i32 %18 to i64
  %20 = getelementptr inbounds [999 x %struct.anon], [999 x %struct.anon]* %3, i64 0, i64 %19
  %21 = getelementptr inbounds %struct.anon, %struct.anon* %20, i32 0, i32 0
  %22 = load i32, i32* %4, align 4
  %23 = sext i32 %22 to i64
  %24 = getelementptr inbounds [999 x %struct.anon], [999 x %struct.anon]* %3, i64 0, i64 %23
  %25 = getelementptr inbounds %struct.anon, %struct.anon* %24, i32 0, i32 1
  %26 = getelementptr inbounds [25 x i8], [25 x i8]* %25, i64 0, i64 0
  %27 = call i32 (i8*, ...) @__isoc99_scanf(i8* getelementptr inbounds ([6 x i8], [6 x i8]* @.str.1, i64 0, i64 0), i32* %21, i8* %26)
  br label %28

28:                                               ; preds = %17
  %29 = load i32, i32* %4, align 4
  %30 = add nsw i32 %29, 1
  store i32 %30, i32* %4, align 4
  br label %12

31:                                               ; preds = %12
  %32 = bitcast [26 x i32]* %6 to i8*
  call void @llvm.memset.p0i8.i64(i8* align 16 %32, i8 0, i64 104, i1 false)
  store i32 0, i32* %4, align 4
  br label %33

33:                                               ; preds = %69, %31
  %34 = load i32, i32* %4, align 4
  %35 = load i32, i32* %2, align 4
  %36 = sub nsw i32 %35, 1
  %37 = icmp sle i32 %34, %36
  br i1 %37, label %38, label %72

38:                                               ; preds = %33
  %39 = load i32, i32* %4, align 4
  %40 = sext i32 %39 to i64
  %41 = getelementptr inbounds [999 x %struct.anon], [999 x %struct.anon]* %3, i64 0, i64 %40
  %42 = getelementptr inbounds %struct.anon, %struct.anon* %41, i32 0, i32 1
  %43 = getelementptr inbounds [25 x i8], [25 x i8]* %42, i64 0, i64 0
  %44 = call i64 @strlen(i8* %43) #4
  %45 = trunc i64 %44 to i32
  store i32 %45, i32* %7, align 4
  store i32 0, i32* %5, align 4
  br label %46

46:                                               ; preds = %65, %38
  %47 = load i32, i32* %5, align 4
  %48 = load i32, i32* %7, align 4
  %49 = icmp slt i32 %47, %48
  br i1 %49, label %50, label %68

50:                                               ; preds = %46
  %51 = load i32, i32* %4, align 4
  %52 = sext i32 %51 to i64
  %53 = getelementptr inbounds [999 x %struct.anon], [999 x %struct.anon]* %3, i64 0, i64 %52
  %54 = getelementptr inbounds %struct.anon, %struct.anon* %53, i32 0, i32 1
  %55 = load i32, i32* %5, align 4
  %56 = sext i32 %55 to i64
  %57 = getelementptr inbounds [25 x i8], [25 x i8]* %54, i64 0, i64 %56
  %58 = load i8, i8* %57, align 1
  %59 = sext i8 %58 to i32
  %60 = sub nsw i32 %59, 65
  %61 = sext i32 %60 to i64
  %62 = getelementptr inbounds [26 x i32], [26 x i32]* %6, i64 0, i64 %61
  %63 = load i32, i32* %62, align 4
  %64 = add nsw i32 %63, 1
  store i32 %64, i32* %62, align 4
  br label %65

65:                                               ; preds = %50
  %66 = load i32, i32* %5, align 4
  %67 = add nsw i32 %66, 1
  store i32 %67, i32* %5, align 4
  br label %46

68:                                               ; preds = %46
  br label %69

69:                                               ; preds = %68
  %70 = load i32, i32* %4, align 4
  %71 = add nsw i32 %70, 1
  store i32 %71, i32* %4, align 4
  br label %33

72:                                               ; preds = %33
  store i32 0, i32* %8, align 4
  store i32 0, i32* %4, align 4
  br label %73

73:                                               ; preds = %92, %72
  %74 = load i32, i32* %4, align 4
  %75 = icmp sle i32 %74, 25
  br i1 %75, label %76, label %95

76:                                               ; preds = %73
  %77 = load i32, i32* %4, align 4
  %78 = sext i32 %77 to i64
  %79 = getelementptr inbounds [26 x i32], [26 x i32]* %6, i64 0, i64 %78
  %80 = load i32, i32* %79, align 4
  %81 = load i32, i32* %8, align 4
  %82 = icmp sgt i32 %80, %81
  br i1 %82, label %83, label %91

83:                                               ; preds = %76
  %84 = load i32, i32* %4, align 4
  %85 = sext i32 %84 to i64
  %86 = getelementptr inbounds [26 x i32], [26 x i32]* %6, i64 0, i64 %85
  %87 = load i32, i32* %86, align 4
  store i32 %87, i32* %8, align 4
  %88 = load i32, i32* %4, align 4
  %89 = add nsw i32 65, %88
  %90 = trunc i32 %89 to i8
  store i8 %90, i8* %9, align 1
  br label %91

91:                                               ; preds = %83, %76
  br label %92

92:                                               ; preds = %91
  %93 = load i32, i32* %4, align 4
  %94 = add nsw i32 %93, 1
  store i32 %94, i32* %4, align 4
  br label %73

95:                                               ; preds = %73
  %96 = load i8, i8* %9, align 1
  %97 = sext i8 %96 to i32
  %98 = call i32 (i8*, ...) @printf(i8* getelementptr inbounds ([4 x i8], [4 x i8]* @.str.2, i64 0, i64 0), i32 %97)
  %99 = load i32, i32* %8, align 4
  %100 = call i32 (i8*, ...) @printf(i8* getelementptr inbounds ([4 x i8], [4 x i8]* @.str.3, i64 0, i64 0), i32 %99)
  store i32 0, i32* %4, align 4
  br label %101

101:                                              ; preds = %143, %95
  %102 = load i32, i32* %4, align 4
  %103 = load i32, i32* %2, align 4
  %104 = sub nsw i32 %103, 1
  %105 = icmp sle i32 %102, %104
  br i1 %105, label %106, label %146

106:                                              ; preds = %101
  %107 = load i32, i32* %4, align 4
  %108 = sext i32 %107 to i64
  %109 = getelementptr inbounds [999 x %struct.anon], [999 x %struct.anon]* %3, i64 0, i64 %108
  %110 = getelementptr inbounds %struct.anon, %struct.anon* %109, i32 0, i32 1
  %111 = getelementptr inbounds [25 x i8], [25 x i8]* %110, i64 0, i64 0
  %112 = call i64 @strlen(i8* %111) #4
  %113 = trunc i64 %112 to i32
  store i32 %113, i32* %10, align 4
  store i32 0, i32* %5, align 4
  br label %114

114:                                              ; preds = %139, %106
  %115 = load i32, i32* %5, align 4
  %116 = load i32, i32* %10, align 4
  %117 = icmp slt i32 %115, %116
  br i1 %117, label %118, label %142

118:                                              ; preds = %114
  %119 = load i32, i32* %4, align 4
  %120 = sext i32 %119 to i64
  %121 = getelementptr inbounds [999 x %struct.anon], [999 x %struct.anon]* %3, i64 0, i64 %120
  %122 = getelementptr inbounds %struct.anon, %struct.anon* %121, i32 0, i32 1
  %123 = load i32, i32* %5, align 4
  %124 = sext i32 %123 to i64
  %125 = getelementptr inbounds [25 x i8], [25 x i8]* %122, i64 0, i64 %124
  %126 = load i8, i8* %125, align 1
  %127 = sext i8 %126 to i32
  %128 = load i8, i8* %9, align 1
  %129 = sext i8 %128 to i32
  %130 = icmp eq i32 %127, %129
  br i1 %130, label %131, label %138

131:                                              ; preds = %118
  %132 = load i32, i32* %4, align 4
  %133 = sext i32 %132 to i64
  %134 = getelementptr inbounds [999 x %struct.anon], [999 x %struct.anon]* %3, i64 0, i64 %133
  %135 = getelementptr inbounds %struct.anon, %struct.anon* %134, i32 0, i32 0
  %136 = load i32, i32* %135, align 16
  %137 = call i32 (i8*, ...) @printf(i8* getelementptr inbounds ([4 x i8], [4 x i8]* @.str.3, i64 0, i64 0), i32 %136)
  br label %138

138:                                              ; preds = %131, %118
  br label %139

139:                                              ; preds = %138
  %140 = load i32, i32* %5, align 4
  %141 = add nsw i32 %140, 1
  store i32 %141, i32* %5, align 4
  br label %114

142:                                              ; preds = %114
  br label %143

143:                                              ; preds = %142
  %144 = load i32, i32* %4, align 4
  %145 = add nsw i32 %144, 1
  store i32 %145, i32* %4, align 4
  br label %101

146:                                              ; preds = %101
  %147 = load i32, i32* %1, align 4
  ret i32 %147
}

declare dso_local i32 @__isoc99_scanf(i8*, ...) #1

; Function Attrs: argmemonly nounwind willreturn
declare void @llvm.memset.p0i8.i64(i8* nocapture writeonly, i8, i64, i1 immarg) #2

; Function Attrs: nounwind readonly
declare dso_local i64 @strlen(i8*) #3

declare dso_local i32 @printf(i8*, ...) #1


!llvm.module.flags = !{!0}
!llvm.ident = !{!1}

!0 = !{i32 1, !"wchar_size", i32 4}
!1 = !{!"clang version 10.0.0-4ubuntu1 "}
